target datalayout = "e-m:e-p270:32:32-p271:32:32-p272:64:64-i64:64-i128:128-f80:128-n8:16:32:64-S128"
target triple = "x86_64-pc-linux-gnu"

%struct.SurfaceDataRasInfo = type { %struct.SurfaceDataBounds, ptr, i32, i32, i32, i32, ptr, ptr, ptr, ptr, ptr, ptr, i32, %union.anon.0 }
%struct.SurfaceDataBounds = type { i32, i32, i32, i32 }
%union.anon.0 = type { ptr, [56 x i8] }

; Function Attrs: nounwind uwtable
define hidden void @ByteIndexedToUshort555RgbScaleConvert(ptr noundef %0, ptr noundef %1, i32 noundef %2, i32 noundef %3, i32 noundef %4, i32 noundef %5, i32 noundef %6, i32 noundef %7, i32 noundef %8, ptr noundef %9, ptr noundef %10, ptr noundef %11, ptr noundef %12) #1 {
  %14 = alloca ptr, align 8
  %15 = alloca ptr, align 8
  %16 = alloca i32, align 4
  %17 = alloca i32, align 4
  %18 = alloca i32, align 4
  %19 = alloca i32, align 4
  %20 = alloca i32, align 4
  %21 = alloca i32, align 4
  %22 = alloca i32, align 4
  %23 = alloca ptr, align 8
  %24 = alloca ptr, align 8
  %25 = alloca ptr, align 8
  %26 = alloca ptr, align 8
  %27 = alloca [256 x i16], align 16
  %28 = alloca ptr, align 8
  %29 = alloca i32, align 4
  %30 = alloca ptr, align 8
  %31 = alloca i32, align 4
  %32 = alloca i32, align 4
  %33 = alloca ptr, align 8
  %34 = alloca ptr, align 8
  %35 = alloca i32, align 4
  %36 = alloca i32, align 4
  %37 = alloca i32, align 4
  %38 = alloca i32, align 4
  %39 = alloca i32, align 4
  store ptr %0, ptr %14, align 8
  store ptr %1, ptr %15, align 8
  store i32 %2, ptr %16, align 4
  store i32 %3, ptr %17, align 4
  store i32 %4, ptr %18, align 4
  store i32 %5, ptr %19, align 4
  store i32 %6, ptr %20, align 4
  store i32 %7, ptr %21, align 4
  store i32 %8, ptr %22, align 4
  store ptr %9, ptr %23, align 8
  store ptr %10, ptr %24, align 8
  store ptr %11, ptr %25, align 8
  store ptr %12, ptr %26, align 8
  br label %40

40:                                               ; preds = %13
  %41 = load ptr, ptr %23, align 8
  %42 = getelementptr inbounds %struct.SurfaceDataRasInfo, ptr %41, i32 0, i32 6
  %43 = load ptr, ptr %42, align 8
  store ptr %43, ptr %28, align 8
  %44 = load ptr, ptr %23, align 8
  %45 = getelementptr inbounds %struct.SurfaceDataRasInfo, ptr %44, i32 0, i32 5
  %46 = load i32, ptr %45, align 4
  store i32 %46, ptr %29, align 4
  %47 = load i32, ptr %29, align 4
  %48 = icmp uge i32 %47, 256
  br i1 %48, label %49, label %50

49:                                               ; preds = %40
  store i32 256, ptr %29, align 4
  br label %63

50:                                               ; preds = %40
  %51 = load i32, ptr %29, align 4
  %52 = zext i32 %51 to i64
  %53 = getelementptr inbounds [256 x i16], ptr %27, i64 0, i64 %52
  store ptr %53, ptr %30, align 8
  br label %54

54:                                               ; preds = %57, %50
  %55 = load ptr, ptr %30, align 8
  %56 = getelementptr inbounds i16, ptr %55, i64 0
  store i16 0, ptr %56, align 2
  br label %57

57:                                               ; preds = %54
  %58 = load ptr, ptr %30, align 8
  %59 = getelementptr inbounds i16, ptr %58, i32 1
  store ptr %59, ptr %30, align 8
  %60 = getelementptr inbounds [256 x i16], ptr %27, i64 0, i64 256
  %61 = icmp ult ptr %59, %60
  br i1 %61, label %54, label %62, !llvm.loop !27

62:                                               ; preds = %57
  br label %63

63:                                               ; preds = %62, %49
  br label %64

64:                                               ; preds = %63
  store i32 0, ptr %31, align 4
  br label %65

65:                                               ; preds = %88, %64
  br label %66

66:                                               ; preds = %65
  %67 = load ptr, ptr %28, align 8
  %68 = load i32, ptr %31, align 4
  %69 = zext i32 %68 to i64
  %70 = getelementptr inbounds i32, ptr %67, i64 %69
  %71 = load i32, ptr %70, align 4
  store i32 %71, ptr %32, align 4
  %72 = load i32, ptr %32, align 4
  %73 = ashr i32 %72, 9
  %74 = and i32 %73, 31744
  %75 = load i32, ptr %32, align 4
  %76 = ashr i32 %75, 6
  %77 = and i32 %76, 992
  %78 = or i32 %74, %77
  %79 = load i32, ptr %32, align 4
  %80 = ashr i32 %79, 3
  %81 = and i32 %80, 31
  %82 = or i32 %78, %81
  %83 = trunc i32 %82 to i16
  %84 = load i32, ptr %31, align 4
  %85 = zext i32 %84 to i64
  %86 = getelementptr inbounds [256 x i16], ptr %27, i64 0, i64 %85
  store i16 %83, ptr %86, align 2
  br label %87

87:                                               ; preds = %66
  br label %88

88:                                               ; preds = %87
  %89 = load i32, ptr %31, align 4
  %90 = add i32 %89, 1
  store i32 %90, ptr %31, align 4
  %91 = load i32, ptr %29, align 4
  %92 = icmp ult i32 %90, %91
  br i1 %92, label %65, label %93, !llvm.loop !28

93:                                               ; preds = %88
  br label %94

94:                                               ; preds = %93
  br label %95

95:                                               ; preds = %94
  br label %96

96:                                               ; preds = %95
  %97 = load ptr, ptr %15, align 8
  store ptr %97, ptr %34, align 8
  %98 = load ptr, ptr %23, align 8
  %99 = getelementptr inbounds %struct.SurfaceDataRasInfo, ptr %98, i32 0, i32 4
  %100 = load i32, ptr %99, align 8
  store i32 %100, ptr %35, align 4
  %101 = load ptr, ptr %24, align 8
  %102 = getelementptr inbounds %struct.SurfaceDataRasInfo, ptr %101, i32 0, i32 4
  %103 = load i32, ptr %102, align 8
  store i32 %103, ptr %36, align 4
  %104 = load i32, ptr %16, align 4
  %105 = mul i32 %104, 2
  %106 = load i32, ptr %36, align 4
  %107 = sub i32 %106, %105
  store i32 %107, ptr %36, align 4
  br label %108

108:                                              ; preds = %157, %96
  %109 = load i32, ptr %16, align 4
  store i32 %109, ptr %37, align 4
  %110 = load i32, ptr %18, align 4
  store i32 %110, ptr %38, align 4
  %111 = load ptr, ptr %14, align 8
  %112 = ptrtoint ptr %111 to i64
  %113 = load i32, ptr %19, align 4
  %114 = load i32, ptr %22, align 4
  %115 = ashr i32 %113, %114
  %116 = sext i32 %115 to i64
  %117 = load i32, ptr %35, align 4
  %118 = sext i32 %117 to i64
  %119 = mul nsw i64 %116, %118
  %120 = add nsw i64 %112, %119
  %121 = inttoptr i64 %120 to ptr
  store ptr %121, ptr %33, align 8
  br label %122

122:                                              ; preds = %143, %108
  %123 = load i32, ptr %38, align 4
  %124 = load i32, ptr %22, align 4
  %125 = ashr i32 %123, %124
  store i32 %125, ptr %39, align 4
  %126 = load ptr, ptr %33, align 8
  %127 = load i32, ptr %39, align 4
  %128 = sext i32 %127 to i64
  %129 = getelementptr inbounds i8, ptr %126, i64 %128
  %130 = load i8, ptr %129, align 1
  %131 = zext i8 %130 to i64
  %132 = getelementptr inbounds [256 x i16], ptr %27, i64 0, i64 %131
  %133 = load i16, ptr %132, align 2
  %134 = load ptr, ptr %34, align 8
  %135 = getelementptr inbounds i16, ptr %134, i64 0
  store i16 %133, ptr %135, align 2
  %136 = load ptr, ptr %34, align 8
  %137 = ptrtoint ptr %136 to i64
  %138 = add nsw i64 %137, 2
  %139 = inttoptr i64 %138 to ptr
  store ptr %139, ptr %34, align 8
  %140 = load i32, ptr %20, align 4
  %141 = load i32, ptr %38, align 4
  %142 = add nsw i32 %141, %140
  store i32 %142, ptr %38, align 4
  br label %143

143:                                              ; preds = %122
  %144 = load i32, ptr %37, align 4
  %145 = add i32 %144, -1
  store i32 %145, ptr %37, align 4
  %146 = icmp ugt i32 %145, 0
  br i1 %146, label %122, label %147, !llvm.loop !29

147:                                              ; preds = %143
  %148 = load ptr, ptr %34, align 8
  %149 = ptrtoint ptr %148 to i64
  %150 = load i32, ptr %36, align 4
  %151 = sext i32 %150 to i64
  %152 = add nsw i64 %149, %151
  %153 = inttoptr i64 %152 to ptr
  store ptr %153, ptr %34, align 8
  %154 = load i32, ptr %21, align 4
  %155 = load i32, ptr %19, align 4
  %156 = add nsw i32 %155, %154
  store i32 %156, ptr %19, align 4
  br label %157

157:                                              ; preds = %147
  %158 = load i32, ptr %17, align 4
  %159 = add i32 %158, -1
  store i32 %159, ptr %17, align 4
  %160 = icmp ugt i32 %159, 0
  br i1 %160, label %108, label %161, !llvm.loop !30

161:                                              ; preds = %157
  br label %162

162:                                              ; preds = %161
  ret void
}