; Function Attrs: nofree norecurse nosync nounwind memory(readwrite, inaccessiblemem: none) uwtable
define hidden void @ByteIndexedToUshort555RgbScaleConvert(ptr noundef %0, ptr noundef %1, i32 noundef %2, i32 noundef %3, i32 noundef %4, i32 noundef %5, i32 noundef %6, i32 noundef %7, i32 noundef %8, ptr nocapture noundef readonly %9, ptr nocapture noundef readonly %10, ptr nocapture readnone %11, ptr nocapture readnone %12) #1 {
  %14 = alloca [256 x i16], align 16
  %15 = getelementptr inbounds i8, ptr %9, i64 40
  %16 = load ptr, ptr %15, align 8
  %17 = getelementptr inbounds i8, ptr %9, i64 36
  %18 = load i32, ptr %17, align 4
  %19 = icmp ugt i32 %18, 255
  br i1 %19, label %.loopexit, label %.loopexit.loopexit

.loopexit.loopexit:                               ; preds = %13
  %20 = shl nuw nsw i32 %18, 1
  %.idx = zext nneg i32 %20 to i64
  %scevgep = getelementptr i8, ptr %14, i64 %.idx
  %21 = sub nuw nsw i64 512, %.idx
  call void @llvm.memset.p0.i64(ptr align 2 %scevgep, i8 0, i64 %21, i1 false)
  br label %.loopexit

.loopexit:                                        ; preds = %.loopexit.loopexit, %13
  %.042 = phi i32 [ 256, %13 ], [ %18, %.loopexit.loopexit ]
  %umax = tail call i32 @llvm.umax.i32(i32 %.042, i32 1)
  %wide.trip.count = zext nneg i32 %umax to i64
  br label %22

22:                                               ; preds = %22, %.loopexit
  %indvars.iv = phi i64 [ %indvars.iv.next, %22 ], [ 0, %.loopexit ]
  %23 = getelementptr inbounds i32, ptr %16, i64 %indvars.iv
  %24 = load i32, ptr %23, align 4
  %25 = lshr i32 %24, 9
  %26 = and i32 %25, 31744
  %27 = lshr i32 %24, 6
  %28 = and i32 %27, 992
  %29 = or disjoint i32 %26, %28
  %30 = lshr i32 %24, 3
  %31 = and i32 %30, 31
  %32 = or disjoint i32 %29, %31
  %33 = trunc nuw nsw i32 %32 to i16
  %34 = getelementptr inbounds [256 x i16], ptr %14, i64 0, i64 %indvars.iv
  store i16 %33, ptr %34, align 2
  %indvars.iv.next = add nuw nsw i64 %indvars.iv, 1
  %exitcond.not = icmp eq i64 %indvars.iv.next, %wide.trip.count
  br i1 %exitcond.not, label %35, label %22, !llvm.loop !26

35:                                               ; preds = %22
  %36 = getelementptr inbounds i8, ptr %9, i64 32
  %37 = load i32, ptr %36, align 8
  %38 = getelementptr inbounds i8, ptr %10, i64 32
  %39 = load i32, ptr %38, align 8
  %40 = shl i32 %2, 1
  %41 = sub i32 %39, %40
  %42 = sext i32 %41 to i64
  %43 = ptrtoint ptr %0 to i64
  %44 = sext i32 %37 to i64
  br label %45

45:                                               ; preds = %64, %35
  %.041 = phi ptr [ %1, %35 ], [ %66, %64 ]
  %.040 = phi i32 [ %5, %35 ], [ %67, %64 ]
  %.0 = phi i32 [ %3, %35 ], [ %68, %64 ]
  %46 = ashr i32 %.040, %8
  %47 = sext i32 %46 to i64
  %48 = mul nsw i64 %47, %44
  %49 = add nsw i64 %48, %43
  %50 = inttoptr i64 %49 to ptr
  br label %51

51:                                               ; preds = %51, %45
  %.1 = phi ptr [ %.041, %45 ], [ %61, %51 ]
  %.039 = phi i32 [ %2, %45 ], [ %63, %51 ]
  %.038 = phi i32 [ %4, %45 ], [ %62, %51 ]
  %52 = ashr i32 %.038, %8
  %53 = sext i32 %52 to i64
  %54 = getelementptr inbounds i8, ptr %50, i64 %53
  %55 = load i8, ptr %54, align 1
  %56 = zext i8 %55 to i64
  %57 = getelementptr inbounds [256 x i16], ptr %14, i64 0, i64 %56
  %58 = load i16, ptr %57, align 2
  store i16 %58, ptr %.1, align 2
  %59 = ptrtoint ptr %.1 to i64
  %60 = add nsw i64 %59, 2
  %61 = inttoptr i64 %60 to ptr
  %62 = add nsw i32 %.038, %6
  %63 = add i32 %.039, -1
  %.not = icmp eq i32 %63, 0
  br i1 %.not, label %64, label %51, !llvm.loop !27

64:                                               ; preds = %51
  %65 = add nsw i64 %60, %42
  %66 = inttoptr i64 %65 to ptr
  %67 = add nsw i32 %.040, %7
  %68 = add i32 %.0, -1
  %.not48 = icmp eq i32 %68, 0
  br i1 %.not48, label %69, label %45, !llvm.loop !28

69:                                               ; preds = %64
  ret void
}